; Function Attrs: mustprogress uwtable
define noundef nonnull ptr @_ZN6google8protobuf15FastHexToBufferEiPc(i32 noundef %0, ptr noundef writeonly %1) local_unnamed_addr #6 personality ptr @__gxx_personality_v0 {
  %3 = alloca %"class.google::protobuf::internal::LogMessage", align 8
  %4 = alloca %"class.google::protobuf::internal::LogFinisher", align 1
  %5 = icmp slt i32 %0, 0
  call void @llvm.lifetime.start.p0(i64 1, ptr nonnull %4) #31
  br i1 %5, label %6, label %13

6:                                                ; preds = %2
  call void @llvm.lifetime.start.p0(i64 56, ptr nonnull %3) #31
  call void @_ZN6google8protobuf8internal10LogMessageC1ENS0_8LogLevelEPKci(ptr noundef nonnull align 8 dereferenceable(56) %3, i32 noundef 3, ptr noundef nonnull @.str, i32 noundef 887)
  %7 = invoke noundef nonnull align 8 dereferenceable(56) ptr @_ZN6google8protobuf8internal10LogMessagelsEPKc(ptr noundef nonnull align 8 dereferenceable(56) %3, ptr noundef nonnull @.str.7)
          to label %8 unwind label %26

8:                                                ; preds = %6
  %9 = invoke noundef nonnull align 8 dereferenceable(56) ptr @_ZN6google8protobuf8internal10LogMessagelsEPKc(ptr noundef nonnull align 8 dereferenceable(56) %7, ptr noundef nonnull @.str.8)
          to label %10 unwind label %26

10:                                               ; preds = %8
  %11 = invoke noundef nonnull align 8 dereferenceable(56) ptr @_ZN6google8protobuf8internal10LogMessagelsEi(ptr noundef nonnull align 8 dereferenceable(56) %9, i32 noundef %0)
          to label %12 unwind label %26

12:                                               ; preds = %10
  invoke void @_ZN6google8protobuf8internal11LogFinisheraSERNS1_10LogMessageE(ptr noundef nonnull align 1 dereferenceable(1) %4, ptr noundef nonnull align 8 dereferenceable(56) %11)
          to label %14 unwind label %28

13:                                               ; preds = %2
  call void @llvm.lifetime.end.p0(i64 1, ptr nonnull %4) #31
  br label %.critedge22

14:                                               ; preds = %12
  call void @llvm.lifetime.end.p0(i64 1, ptr nonnull %4) #31
  call void @_ZN6google8protobuf8internal10LogMessageD1Ev(ptr noundef nonnull align 8 dereferenceable(56) %3) #31
  call void @llvm.lifetime.end.p0(i64 56, ptr nonnull %3) #31
  br label %.critedge22

.critedge22:                                      ; preds = %13, %14
  %15 = getelementptr inbounds nuw i8, ptr %1, i64 21
  %16 = getelementptr inbounds nuw i8, ptr %1, i64 20
  store i8 0, ptr %15, align 1, !tbaa !11
  br label %17

17:                                               ; preds = %17, %.critedge22
  %.018 = phi i32 [ %0, %.critedge22 ], [ %23, %17 ]
  %.0 = phi ptr [ %16, %.critedge22 ], [ %22, %17 ]
  %18 = and i32 %.018, 15
  %19 = zext nneg i32 %18 to i64
  %20 = getelementptr inbounds nuw i8, ptr @_ZZN6google8protobuf7strings8AlphaNumC1ENS1_3HexEE9hexdigits, i64 %19
  %21 = load i8, ptr %20, align 1, !tbaa !11
  %22 = getelementptr inbounds i8, ptr %.0, i64 -1
  store i8 %21, ptr %.0, align 1, !tbaa !11
  %23 = ashr i32 %.018, 4
  %24 = icmp sgt i32 %23, 0
  br i1 %24, label %17, label %25, !llvm.loop !71

25:                                               ; preds = %17
  ret ptr %.0

26:                                               ; preds = %10, %8, %6
  %27 = landingpad { ptr, i32 }
          cleanup
  br label %30

28:                                               ; preds = %12
  %29 = landingpad { ptr, i32 }
          cleanup
  call void @llvm.lifetime.end.p0(i64 1, ptr nonnull %4) #31
  br label %30

30:                                               ; preds = %26, %28
  %.pn = phi { ptr, i32 } [ %29, %28 ], [ %27, %26 ]
  call void @_ZN6google8protobuf8internal10LogMessageD1Ev(ptr noundef nonnull align 8 dereferenceable(56) %3) #31
  call void @llvm.lifetime.end.p0(i64 56, ptr nonnull %3) #31
  resume { ptr, i32 } %.pn
}